target datalayout = "e-m:e-p270:32:32-p271:32:32-p272:64:64-i64:64-i128:128-f80:128-n8:16:32:64-S128"
target triple = "x86_64-pc-linux-gnu"

%union.SourceSpan = type { i64 }
%union.anon.2 = type { ptr }
%union.anon.3 = type { i16 }
%union.anon.4 = type { %struct.FuncDecl }
%struct.FuncDecl = type { i32, [4 x i8], %struct.Signature_, i32, i32, %union.anon.11 }
%struct.Signature_ = type <{ %struct.CalleeAttributes, i16, i8, i32, i32, [4 x i8], ptr }>
%struct.CalleeAttributes = type { i8 }
%union.anon.11 = type { %struct.anon.12 }
%struct.anon.12 = type { i16, %union.anon.13 }
%union.anon.13 = type { ptr }
%struct.Vmem = type { ptr, i64, i64 }
%struct.Decl_ = type { ptr, ptr, %union.SourceSpan, i64, %union.anon.2, i32, %union.anon.3, i64, ptr, ptr, ptr, %union.anon.4 }
%struct.VarDecl_ = type { i32, i32, %union.anon.17, %union.anon.18 }
%union.anon.17 = type { ptr }
%union.anon.18 = type { %struct.anon.19 }
%struct.anon.19 = type { ptr, %union.SourceSpan }

@decl_arena = external global %struct.Vmem, align 8
@type_info_arena = external global %struct.Vmem, align 8

; Function Attrs: nounwind uwtable
define internal ptr @decl_calloc() #0 {
  %1 = call ptr @vmem_alloc(ptr noundef @decl_arena, i64 noundef 136)
  ret ptr %1
}

; Function Attrs: nounwind uwtable
define internal i32 @type_infoid(ptr noundef %0) #0 {
  %2 = alloca ptr, align 8
  store ptr %0, ptr %2, align 8
  %3 = load ptr, ptr %2, align 8
  %4 = load ptr, ptr @type_info_arena, align 8
  %5 = ptrtoint ptr %3 to i64
  %6 = ptrtoint ptr %4 to i64
  %7 = sub i64 %5, %6
  %8 = sdiv exact i64 %7, 40
  %9 = trunc i64 %8 to i32
  ret i32 %9
}

; Function Attrs: nounwind uwtable
define dso_local ptr @decl_new(i32 noundef %0, ptr noundef %1, i64 %2) #0 {
  %4 = alloca %union.SourceSpan, align 8
  %5 = alloca i32, align 4
  %6 = alloca ptr, align 8
  %7 = alloca ptr, align 8
  %8 = getelementptr inbounds %union.SourceSpan, ptr %4, i32 0, i32 0
  store i64 %2, ptr %8, align 8
  store i32 %0, ptr %5, align 4
  store ptr %1, ptr %6, align 8
  %9 = call ptr @decl_calloc()
  store ptr %9, ptr %7, align 8
  %10 = load i32, ptr %5, align 4
  %11 = load ptr, ptr %7, align 8
  %12 = getelementptr inbounds %struct.Decl_, ptr %11, i32 0, i32 3
  %13 = zext i32 %10 to i64
  %14 = load i64, ptr %12, align 8
  %15 = and i64 %13, 127
  %16 = and i64 %14, -128
  %17 = or i64 %16, %15
  store i64 %17, ptr %12, align 8
  %18 = load ptr, ptr %7, align 8
  %19 = getelementptr inbounds %struct.Decl_, ptr %18, i32 0, i32 2
  call void @llvm.memcpy.p0.p0.i64(ptr align 8 %19, ptr align 8 %4, i64 8, i1 false)
  %20 = load ptr, ptr %6, align 8
  %21 = load ptr, ptr %7, align 8
  %22 = getelementptr inbounds %struct.Decl_, ptr %21, i32 0, i32 0
  store ptr %20, ptr %22, align 8
  %23 = load ptr, ptr %7, align 8
  ret ptr %23
}

; Function Attrs: nounwind uwtable
define dso_local ptr @decl_new_var(ptr noundef %0, i64 %1, ptr noundef %2, i32 noundef %3) #0 {
  %5 = alloca %union.SourceSpan, align 8
  %6 = alloca ptr, align 8
  %7 = alloca ptr, align 8
  %8 = alloca i32, align 4
  %9 = alloca ptr, align 8
  %10 = getelementptr inbounds %union.SourceSpan, ptr %5, i32 0, i32 0
  store i64 %1, ptr %10, align 8
  store ptr %0, ptr %6, align 8
  store ptr %2, ptr %7, align 8
  store i32 %3, ptr %8, align 4
  %11 = load ptr, ptr %6, align 8
  %12 = getelementptr inbounds %union.SourceSpan, ptr %5, i32 0, i32 0
  %13 = load i64, ptr %12, align 8
  %14 = call ptr @decl_new(i32 noundef 26, ptr noundef %11, i64 %13)
  store ptr %14, ptr %9, align 8
  %15 = load i32, ptr %8, align 4
  %16 = load ptr, ptr %9, align 8
  %17 = getelementptr inbounds %struct.Decl_, ptr %16, i32 0, i32 11
  %18 = load i32, ptr %17, align 8
  %19 = and i32 %15, 255
  %20 = and i32 %18, -256
  %21 = or i32 %20, %19
  store i32 %21, ptr %17, align 8
  %22 = load ptr, ptr %7, align 8
  %23 = icmp ne ptr %22, null
  br i1 %23, label %24, label %27

24:                                               ; preds = %4
  %25 = load ptr, ptr %7, align 8
  %26 = call i32 @type_infoid(ptr noundef %25)
  br label %28

27:                                               ; preds = %4
  br label %28

28:                                               ; preds = %27, %24
  %29 = phi i32 [ %26, %24 ], [ 0, %27 ]
  %30 = load ptr, ptr %9, align 8
  %31 = getelementptr inbounds %struct.Decl_, ptr %30, i32 0, i32 11
  %32 = getelementptr inbounds %struct.VarDecl_, ptr %31, i32 0, i32 1
  store i32 %29, ptr %32, align 4
  %33 = load ptr, ptr %9, align 8
  ret ptr %33
}