; Function Attrs: nounwind uwtable
define dso_local noundef ptr @decl_new_var(ptr noundef %0, i64 %1, ptr noundef %2, i32 noundef %3) local_unnamed_addr #0 {
  %5 = tail call ptr @vmem_alloc(ptr noundef nonnull @decl_arena, i64 noundef 136) #9
  %6 = getelementptr inbounds i8, ptr %5, i64 24
  %7 = load i64, ptr %6, align 8
  %8 = and i64 %7, -128
  %9 = or disjoint i64 %8, 26
  store i64 %9, ptr %6, align 8
  %10 = getelementptr inbounds i8, ptr %5, i64 16
  store i64 %1, ptr %10, align 8
  store ptr %0, ptr %5, align 8
  %11 = getelementptr inbounds i8, ptr %5, i64 80
  %12 = load i32, ptr %11, align 8
  %13 = and i32 %3, 255
  %14 = and i32 %12, -256
  %15 = or disjoint i32 %14, %13
  store i32 %15, ptr %11, align 8
  %.not = icmp eq ptr %2, null
  br i1 %.not, label %23, label %16

16:                                               ; preds = %4
  %17 = load ptr, ptr @type_info_arena, align 8
  %18 = ptrtoint ptr %2 to i64
  %19 = ptrtoint ptr %17 to i64
  %20 = sub i64 %18, %19
  %21 = sdiv exact i64 %20, 40
  %22 = trunc i64 %21 to i32
  br label %23

23:                                               ; preds = %4, %16
  %24 = phi i32 [ %22, %16 ], [ 0, %4 ]
  %25 = getelementptr inbounds i8, ptr %5, i64 84
  store i32 %24, ptr %25, align 4
  ret ptr %5
}